; Function Attrs: mustprogress uwtable
define void @_ZN7rocksdb10WriteBatchC2ERKNSt7__cxx1112basic_stringIcSt11char_traitsIcESaIcEEE(ptr noundef nonnull align 8 dereferenceable(96) %this, ptr noundef nonnull align 8 dereferenceable(32) %rep) unnamed_addr #2 align 2 personality ptr @__gxx_personality_v0 {
entry:
  store ptr getelementptr inbounds ({ [39 x ptr] }, ptr @_ZTVN7rocksdb10WriteBatchE, i64 0, i32 0, i64 2), ptr %this, align 8
  %save_points_ = getelementptr inbounds i8, ptr %this, i64 8
  %content_flags_ = getelementptr inbounds i8, ptr %this, i64 36
  tail call void @llvm.memset.p0.i64(ptr noundef nonnull align 8 dereferenceable(27) %save_points_, i8 0, i64 27, i1 false)
  store i32 1, ptr %content_flags_, align 4
  %max_bytes_ = getelementptr inbounds i8, ptr %this, i64 40
  %rep_ = getelementptr inbounds i8, ptr %this, i64 64
  tail call void @llvm.memset.p0.i64(ptr noundef nonnull align 8 dereferenceable(24) %max_bytes_, i8 0, i64 24, i1 false)
  invoke void @_ZNSt7__cxx1112basic_stringIcSt11char_traitsIcESaIcEEC1ERKS4_(ptr noundef nonnull align 8 dereferenceable(32) %rep_, ptr noundef nonnull align 8 dereferenceable(32) %rep)
          to label %invoke.cont3 unwind label %lpad2

invoke.cont3:                                     ; preds = %entry
  ret void

lpad2:                                            ; preds = %entry
  %0 = landingpad { ptr, i32 }
          cleanup
  %prot_info_ = getelementptr inbounds i8, ptr %this, i64 48
  tail call void @_ZNSt10unique_ptrIN7rocksdb10WriteBatch14ProtectionInfoESt14default_deleteIS2_EED2Ev(ptr noundef nonnull align 8 dereferenceable(8) %prot_info_) #24
  tail call void @_ZNSt10unique_ptrIN7rocksdb10SavePointsESt14default_deleteIS1_EED2Ev(ptr noundef nonnull align 8 dereferenceable(8) %save_points_) #24
  resume { ptr, i32 } %0
}